(dp0
I0
(ibook
book
p1
(dp2
S'title'
p3
Vlivro 1
p4
sS'sum_votes'
p5
I0
sS'year'
p6
V2000
p7
sS'id'
p8
I0
sS'author'
p9
Vjoao
p10
sbsI1
(ibook
book
p11
(dp12
g3
Vlivro 2
p13
sg5
I0
sg6
V2012
p14
sg8
I1
sg9
Vjoao
p15
sbsI2
(ibook
book
p16
(dp17
g3
Vlivro 3
p18
sg5
I0
sg6
V2015
p19
sg8
I2
sg9
Vjmaria
p20
sbsI3
(ibook
book
p21
(dp22
g3
Voutro livro
p23
sg5
I0
sg6
V1999
p24
sg8
I3
sg9
Vjoao
p25
sbsI4
(ibook
book
p26
(dp27
g3
Vnovo livro
p28
sg5
I0
sg6
V2000
p29
sg8
I4
sg9
Vjoao
p30
sbsI5
(ibook
book
p31
(dp32
g5
I0
sg3
Vsup
p33
sg6
V1231
p34
sg8
I5
sg9
Vhello
p35
sbs.